target datalayout = "e-m:e-p270:32:32-p271:32:32-p272:64:64-i64:64-i128:128-f80:128-n8:16:32:64-S128"
target triple = "x86_64-pc-linux-gnu"

%struct.cube = type { i8, i8, i16, i16, i16, ptr, ptr, ptr, ptr }

; Function Attrs: nounwind uwtable
define i32 @CountQCost() #0 {
  %1 = alloca ptr, align 8
  %2 = alloca i32, align 4
  %3 = alloca i32, align 4
  call void @llvm.lifetime.start.p0(i64 8, ptr %1) #5
  call void @llvm.lifetime.start.p0(i64 4, ptr %2) #5
  store i32 0, ptr %2, align 4, !tbaa !3
  call void @llvm.lifetime.start.p0(i64 4, ptr %3) #5
  store i32 0, ptr %3, align 4, !tbaa !3
  %4 = call ptr (...) @IterCubeSetStart()
  store ptr %4, ptr %1, align 8, !tbaa !7
  br label %5

5:                                                ; preds = %19, %0
  %6 = load ptr, ptr %1, align 8, !tbaa !7
  %7 = icmp ne ptr %6, null
  br i1 %7, label %8, label %21

8:                                                ; preds = %5
  %9 = load ptr, ptr %1, align 8, !tbaa !7
  %10 = getelementptr inbounds nuw %struct.cube, ptr %9, i32 0, i32 4
  %11 = load i16, ptr %10, align 2, !tbaa !21
  %12 = sext i16 %11 to i32
  %13 = load i32, ptr %3, align 4, !tbaa !3
  %14 = add nsw i32 %13, %12
  store i32 %14, ptr %3, align 4, !tbaa !3
  %15 = load ptr, ptr %1, align 8, !tbaa !7
  %16 = call i32 @ComputeQCostBits(ptr noundef %15)
  %17 = load i32, ptr %2, align 4, !tbaa !3
  %18 = add nsw i32 %17, %16
  store i32 %18, ptr %2, align 4, !tbaa !3
  br label %19

19:                                               ; preds = %8
  %20 = call ptr (...) @IterCubeSetNext()
  store ptr %20, ptr %1, align 8, !tbaa !7
  br label %5, !llvm.loop !22

21:                                               ; preds = %5
  %22 = load i32, ptr %2, align 4, !tbaa !3
  call void @llvm.lifetime.end.p0(i64 4, ptr %3) #5
  call void @llvm.lifetime.end.p0(i64 4, ptr %2) #5
  call void @llvm.lifetime.end.p0(i64 8, ptr %1) #5
  ret i32 %22
}