; Function Attrs: nounwind uwtable
define i32 @CountQCost() local_unnamed_addr #0 {
  %1 = tail call ptr (...) @IterCubeSetStart() #6
  %.not7 = icmp eq ptr %1, null
  br i1 %.not7, label %._crit_edge, label %.lr.ph

.lr.ph:                                           ; preds = %0, %.lr.ph
  %.059 = phi i32 [ %3, %.lr.ph ], [ 0, %0 ]
  %.068 = phi ptr [ %4, %.lr.ph ], [ %1, %0 ]
  %2 = tail call i32 @ComputeQCostBits(ptr noundef nonnull %.068) #6
  %3 = add nsw i32 %2, %.059
  %4 = tail call ptr (...) @IterCubeSetNext() #6
  %.not = icmp eq ptr %4, null
  br i1 %.not, label %._crit_edge, label %.lr.ph, !llvm.loop !19

._crit_edge:                                      ; preds = %.lr.ph, %0
  %.05.lcssa = phi i32 [ 0, %0 ], [ %3, %.lr.ph ]
  ret i32 %.05.lcssa
}